ccopy_reg
_reconstructor
p0
(cargparse
Namespace
p1
c__builtin__
object
p2
Ntp3
Rp4
(dp5
S'num_layers'
p6
I2
sS'dropout_p'
p7
F1.0
sS'seed'
p8
I0
sS'text_train'
p9
S'sample_data/sents/train.txt'
p10
sS'input_dp'
p11
F1.0
sS'max_epochs'
p12
I100
sS'lstm'
p13
I1
sS'jk_test'
p14
S'sample_data/predicted_pos/dev.txt'
p15
sS'mlp_prob'
p16
F1.0
sS'embedding_dim'
p17
I100
sS'rel_test'
p18
S'sample_data/rels/dev.txt'
p19
sS'model_dir'
p20
S'sample_data/Graph_Parsers/bi1_numlayers2_embeddim100_seed0_units64_dropout1.0_inputdp1.0_hp1.0_jkdim5'
p21
sS'units'
p22
I64
sS'jk_train'
p23
S'sample_data/predicted_pos/train.txt'
p24
sS'jk_dim'
p25
I5
sS'stag_dim'
p26
I5
sS'arc_test'
p27
S'sample_data/arcs/dev.txt'
p28
sS'bi'
p29
I1
sS'mlp_units'
p30
I64
sS'lrate'
p31
F0.01
sS'text_test'
p32
S'sample_data/sents/dev.txt'
p33
sS'early_stopping'
p34
I2
sS'rel_train'
p35
S'sample_data/rels/train.txt'
p36
sS'arc_train'
p37
S'sample_data/arcs/train.txt'
p38
sS'num_mlp_layers'
p39
I1
sS'tag_train'
p40
S'sample_data/predicted_stag/train.txt'
p41
sS'mode'
p42
S'train'
p43
sS'tag_test'
p44
S'sample_data/predicted_stag/dev.txt'
p45
sS'hidden_p'
p46
F1.0
sS'base_dir'
p47
S'sample_data'
p48
sb.