ccopy_reg
_reconstructor
p0
(cutils.preprocessing
Tokenizer
p1
c__builtin__
object
p2
Ntp3
Rp4
(dp5
S'lower'
p6
I00
sS'nb_words'
p7
NsS'char_encoding'
p8
I01
sS'word_index'
p9
(dp10
V!
p11
I76
sV#
p12
I75
sV%
p13
I54
sV$
p14
I40
sV'
p15
I25
sV&
p16
I69
sV*
p17
I77
sV-
p18
I26
sV,
p19
I22
sV/
p20
I66
sV.
p21
I19
sV1
p22
I30
sV0
p23
I32
sV3
p24
I45
sV2
p25
I39
sV5
p26
I41
sV4
p27
I53
sV7
p28
I56
sV6
p29
I59
sV9
p30
I42
sV8
p31
I43
sV;
p32
I70
sV:
p33
I67
sV=
p34
I78
sV?
p35
I71
sVA
p36
I35
sV@
p37
I79
sVC
p38
I31
sVB
p39
I34
sVE
p40
I50
sVD
p41
I49
sVG
p42
I58
sVF
p43
I48
sVI
p44
I37
sVH
p45
I55
sVK
p46
I64
sVJ
p47
I60
sVM
p48
I33
sVL
p49
I44
sVO
p50
I62
sVN
p51
I47
sVQ
p52
I72
sVP
p53
I46
sVS
p54
I28
sVR
p55
I38
sVU
p56
I61
sVT
p57
I27
sVW
p58
I52
sVV
p59
I68
sVY
p60
I65
sVX
p61
I74
sVZ
p62
I73
sVa
p63
I3
sV`
p64
I29
sVc
p65
I12
sVb
p66
I20
sVe
p67
I1
sVd
p68
I11
sVg
p69
I17
sVf
p70
I16
sVi
p71
I5
sVh
p72
I10
sVk
p73
I24
sVj
p74
I57
sVm
p75
I14
sVl
p76
I9
sVo
p77
I4
sVn
p78
I6
sVq
p79
I51
sVp
p80
I15
sVs
p81
I7
sVr
p82
I8
sVu
p83
I13
sVt
p84
I2
sVw
p85
I21
sVv
p86
I23
sVy
p87
I18
sVx
p88
I36
sVz
p89
I63
sS'-unseen-'
p90
I80
ssS'char_level'
p91
I00
sS'word_counts'
p92
(dp93
g11
I62
sg12
I142
sg13
I4982
sg14
I7374
sg15
I27873
sg16
I1318
sg17
I26
sg18
I22440
sg19
I50615
sg20
I1572
sg21
I62992
sg22
I13871
sg23
I13247
sg24
I6014
sg25
I7725
sg26
I7287
sg27
I4998
sg28
I4530
sg29
I4151
sg30
I7082
sg31
I6489
sg32
I1125
sg33
I1408
sg34
I2
sg35
I396
sg36
I11753
sg37
I1
sg38
I13469
sg39
I12162
sg40
I5329
sg41
I5336
sg42
I4195
sg43
I5556
sg44
I10215
sg45
I4912
sg46
I1899
sg47
I3901
sg48
I12527
sg49
I6210
sg50
I3737
sg51
I5792
sg52
I301
sg53
I5962
sg54
I14161
sg55
I8745
sg56
I3763
sg57
I14670
sg58
I5123
sg59
I1338
sg60
I1721
sg61
I167
sg62
I212
sg63
I321049
sg64
I14060
sg65
I126200
sg66
I53709
sg67
I465837
sg68
I144271
sg69
I74621
sg70
I80712
sg71
I284823
sg72
I158053
sg73
I29505
sg74
I4285
sg75
I94370
sg76
I164299
sg77
I291148
sg78
I281163
sg79
I5241
sg80
I82774
sg81
I268381
sg82
I261248
sg83
I105102
sg84
I336283
sg85
I53381
sg86
I38862
sg87
I64592
sg88
I10483
sg89
I3440
ssS'split'
p94
S' '
p95
sS'filters'
p96
S'!"#$%&()*+,-./:;<=>?@[\\]^_`{|}~\t\n'
p97
sS'word_docs'
p98
(dp99
sS'index_docs'
p100
(dp101
sS'root'
p102
I00
sS'document_count'
p103
I39832
sb.