ccopy_reg
_reconstructor
p0
(cutils.data_loader.preprocessing
Tokenizer
p1
c__builtin__
object
p2
Ntp3
Rp4
(dp5
S'lower'
p6
I00
sS'nb_words'
p7
NsS'char_encoding'
p8
I00
sS'word_index'
p9
(dp10
S'-unk-'
p11
I5
sS'CO'
p12
I4
sS'ADJ'
p13
I0
sS'-unseen-'
p14
I9
sS'1'
p15
I1
sS'0'
p16
I2
sS'3'
p17
I7
sS'2'
p18
I6
sS'4'
p19
I8
sS'<-root->'
p20
I10
sS'ROOT'
p21
I3
ssS'char_level'
p22
I00
sS'word_counts'
p23
(dp24
g11
I18149
sg12
I19211
sg13
I620685
sg15
I172327
sg16
I70042
sg17
I283
sg18
I9495
sg19
I4
sg21
I39832
ssS'split'
p25
S' '
p26
sS'filters'
p27
S'!"#$%&()*+,-./:;<=>?@[\\]^_`{|}~\t\n'
p28
sS'word_docs'
p29
(dp30
g11
I13640
sg12
I15022
sg21
I39832
sg15
I38233
sg16
I36725
sg17
I282
sg18
I8397
sg19
I4
sg13
I39794
ssS'index_docs'
p31
(dp32
I0
I39794
sI1
I38233
sI2
I36725
sI3
I39832
sI4
I15022
sI5
I13640
sI6
I8397
sI7
I282
sI8
I4
ssS'root'
p33
I01
sS'document_count'
p34
I39832
sb.