ccopy_reg
_reconstructor
p0
(cargparse
Namespace
p1
c__builtin__
object
p2
Ntp3
Rp4
(dp5
S'input_dp'
p6
F0.67
sS'nb_filters'
p7
I30
sS'dropout_p'
p8
F0.67
sS'seed'
p9
I0
sS'text_train'
p10
S'data/tag_wsj/sents/train.txt'
p11
sS'num_layers'
p12
I4
sS'max_epochs'
p13
I100
sS'lstm'
p14
I1
sS'jk_test'
p15
S'data/tag_wsj/gold_pos/dev.txt'
p16
sS'arc_mlp_units'
p17
I500
sS'mlp_prob'
p18
F0.67
sS'punc_test'
p19
S'data/tag_wsj/punc/dev.txt'
p20
sS'embedding_dim'
p21
I100
sS'content_test'
p22
NsS'rel_test'
p23
S'data/tag_wsj/rels/dev.txt'
p24
sS'model_dir'
p25
S'data/tag_wsj/Parsing_Model_Joint_Both/1-4-400-0.67-0.67-1-500-100-0-0-100-0.67-30-30-3-0.01-0'
p26
sS'units'
p27
I400
sS'word_embeddings_file'
p28
S'glovevector/glove.6B.100d.txt'
p29
sS'jk_train'
p30
S'data/tag_wsj/gold_pos/train.txt'
p31
sS'jk_dim'
p32
I0
sS'mlp_num_layers'
p33
I1
sS'stag_dim'
p34
I0
sS'arc_test'
p35
S'data/tag_wsj/arcs/dev.txt'
p36
sS'bi'
p37
I1
sS'metrics'
p38
(lp39
S'NoPunct_LAS_Both'
p40
aS'NoPunct_LAS'
p41
aS'NoPunct_UAS'
p42
aS'Stagging'
p43
asS'rel_mlp_units'
p44
I100
sS'lrate'
p45
F0.01
sS'chars_dim'
p46
I30
sS'text_test'
p47
S'data/tag_wsj/sents/dev.txt'
p48
sS'early_stopping'
p49
I5
sS'rel_train'
p50
S'data/tag_wsj/rels/train.txt'
p51
sS'arc_train'
p52
S'data/tag_wsj/arcs/train.txt'
p53
sS'chars_window_size'
p54
I3
sS'tag_train'
p55
S'data/tag_wsj/gold_stag/train.txt'
p56
sS'joint_mlp_units'
p57
I500
sS'mode'
p58
S'train'
p59
sS'tag_test'
p60
S'data/tag_wsj/gold_stag/dev.txt'
p61
sS'hidden_p'
p62
F0.67
sS'model'
p63
S'Parsing_Model_Joint_Both'
p64
sS'base_dir'
p65
S'data/tag_wsj'
p66
sb.