ccopy_reg
_reconstructor
p0
(cutils.preprocessing
Tokenizer
p1
c__builtin__
object
p2
Ntp3
Rp4
(dp5
S'lower'
p6
I00
sS'nb_words'
p7
NsS'char_encoding'
p8
I00
sS'word_index'
p9
(dp10
S'PRP$'
p11
I21
sS'VBG'
p12
I17
sS'VBD'
p13
I10
sS'``'
p14
I23
sS'VBN'
p15
I15
sS','
p16
I6
sS"''"
p17
I24
sS'<-root->'
p18
I46
sS'VBP'
p19
I18
sS'WDT'
p20
I26
sS'JJ'
p21
I4
sS'WP'
p22
I30
sS'VBZ'
p23
I14
sS'DT'
p24
I3
sS'#'
p25
I41
sS'RP'
p26
I29
sS'$'
p27
I22
sS'NN'
p28
I0
sS'FW'
p29
I39
sS'POS'
p30
I20
sS'.'
p31
I7
sS'TO'
p32
I13
sS'PRP'
p33
I16
sS'RB'
p34
I9
sS'-LRB-'
p35
I35
sS':'
p36
I25
sS'NNS'
p37
I5
sS'NNP'
p38
I2
sS'VB'
p39
I11
sS'WRB'
p40
I31
sS'CC'
p41
I12
sS'LS'
p42
I44
sS'PDT'
p43
I38
sS'RBS'
p44
I37
sS'RBR'
p45
I33
sS'CD'
p46
I8
sS'EX'
p47
I36
sS'IN'
p48
I1
sS'WP$'
p49
I40
sS'MD'
p50
I19
sS'NNPS'
p51
I28
sS'-RRB-'
p52
I34
sS'-unseen-'
p53
I45
sS'JJS'
p54
I32
sS'JJR'
p55
I27
sS'SYM'
p56
I43
sS'UH'
p57
I42
ssS'char_level'
p58
I00
sS'word_counts'
p59
(dp60
g11
I8407
sg12
I14846
sg13
I29889
sg15
I20024
sg16
I48727
sg17
I6919
sg19
I12491
sg20
I4294
sg21
I61217
sg22
I2363
sg23
I21672
sg24
I81842
sg25
I142
sg26
I2662
sg27
I7372
sg28
I132935
sg29
I234
sg30
I8701
sg31
I39478
sg32
I22357
sg33
I17436
sg34
I30970
sg35
I1366
sg36
I4772
sg37
I59856
sg38
I91466
sg14
I7092
sg40
I2143
sg41
I23947
sg42
I36
sg43
I370
sg44
I451
sg45
I1768
sg46
I36568
sg47
I863
sg48
I98554
sg49
I168
sg50
I9803
sg51
I2673
sg52
I1376
sg54
I1947
sg55
I3238
sg56
I58
sg39
I26438
sg57
I97
ssS'split'
p61
S' '
p62
sS'filters'
p63
S'!"#$%&()*+,-./:;<=>?@[\\]^_`{|}~\t\n'
p64
sS'word_docs'
p65
(dp66
g11
I7243
sg12
I11812
sg13
I20515
sg15
I15198
sg16
I25472
sg17
I6341
sg19
I9845
sg20
I4045
sg21
I29267
sg22
I2218
sg23
I16176
sg24
I33577
sg25
I100
sg26
I2544
sg27
I5030
sg28
I36623
sg29
I162
sg30
I7616
sg31
I39169
sg32
I16779
sg33
I12662
sg34
I20172
sg35
I1240
sg36
I3488
sg37
I28665
sg38
I26235
sg14
I6456
sg40
I2032
sg41
I17862
sg42
I32
sg43
I364
sg44
I445
sg45
I1676
sg46
I15207
sg47
I840
sg48
I34598
sg49
I166
sg50
I8649
sg51
I2289
sg52
I1245
sg54
I1864
sg55
I2906
sg56
I58
sg39
I18070
sg57
I87
ssS'index_docs'
p67
(dp68
I0
I36623
sI1
I34598
sI2
I26235
sI3
I33577
sI4
I29267
sI5
I28665
sI6
I25472
sI7
I39169
sI8
I15207
sI9
I20172
sI10
I20515
sI11
I18070
sI12
I17862
sI13
I16779
sI14
I16176
sI15
I15198
sI16
I12662
sI17
I11812
sI18
I9845
sI19
I8649
sI20
I7616
sI21
I7243
sI22
I5030
sI23
I6456
sI24
I6341
sI25
I3488
sI26
I4045
sI27
I2906
sI28
I2289
sI29
I2544
sI30
I2218
sI31
I2032
sI32
I1864
sI33
I1676
sI34
I1245
sI35
I1240
sI36
I840
sI37
I445
sI38
I364
sI39
I162
sI40
I166
sI41
I100
sI42
I87
sI43
I58
sI44
I32
ssS'root'
p69
I01
sS'document_count'
p70
I39832
sb.